; ModuleID = '21/1381.c'
source_filename = "21/1381.c"
target datalayout = "e-m:e-p270:32:32-p271:32:32-p272:64:64-i64:64-f80:128-n8:16:32:64-S128"
target triple = "x86_64-pc-linux-gnu"

@.str = private unnamed_addr constant [3 x i8] c"%d\00", align 1
@.str.1 = private unnamed_addr constant [6 x i8] c"%d,%d\00", align 1

; Function Attrs: noinline nounwind uwtable
define dso_local i32 @main(i32 %0, i8** %1) #0 {
  %3 = alloca i32, align 4
  %4 = alloca i32, align 4
  %5 = alloca i8**, align 8
  %6 = alloca i32, align 4
  %7 = alloca i32, align 4
  %8 = alloca [300 x i32], align 16
  %9 = alloca i32, align 4
  %10 = alloca double, align 8
  %11 = alloca double, align 8
  %12 = alloca i32, align 4
  %13 = alloca i32, align 4
  %14 = alloca i32, align 4
  store i32 0, i32* %3, align 4
  store i32 %0, i32* %4, align 4
  store i8** %1, i8*** %5, align 8
  store i32 0, i32* %9, align 4
  store double 0.000000e+00, double* %11, align 8
  %15 = call i32 (i8*, ...) @__isoc99_scanf(i8* getelementptr inbounds ([3 x i8], [3 x i8]* @.str, i64 0, i64 0), i32* %6)
  store i32 0, i32* %7, align 4
  br label %16

16:                                               ; preds = %31, %2
  %17 = load i32, i32* %7, align 4
  %18 = load i32, i32* %6, align 4
  %19 = icmp slt i32 %17, %18
  br i1 %19, label %20, label %34

20:                                               ; preds = %16
  %21 = load i32, i32* %7, align 4
  %22 = sext i32 %21 to i64
  %23 = getelementptr inbounds [300 x i32], [300 x i32]* %8, i64 0, i64 %22
  %24 = call i32 (i8*, ...) @__isoc99_scanf(i8* getelementptr inbounds ([3 x i8], [3 x i8]* @.str, i64 0, i64 0), i32* %23)
  %25 = load i32, i32* %7, align 4
  %26 = sext i32 %25 to i64
  %27 = getelementptr inbounds [300 x i32], [300 x i32]* %8, i64 0, i64 %26
  %28 = load i32, i32* %27, align 4
  %29 = load i32, i32* %9, align 4
  %30 = add nsw i32 %29, %28
  store i32 %30, i32* %9, align 4
  br label %31

31:                                               ; preds = %20
  %32 = load i32, i32* %7, align 4
  %33 = add nsw i32 %32, 1
  store i32 %33, i32* %7, align 4
  br label %16

34:                                               ; preds = %16
  %35 = load i32, i32* %9, align 4
  %36 = sitofp i32 %35 to float
  %37 = load i32, i32* %6, align 4
  %38 = sitofp i32 %37 to float
  %39 = fdiv float %36, %38
  %40 = fpext float %39 to double
  store double %40, double* %10, align 8
  store i32 0, i32* %7, align 4
  br label %41

41:                                               ; preds = %87, %34
  %42 = load i32, i32* %7, align 4
  %43 = load i32, i32* %6, align 4
  %44 = icmp slt i32 %42, %43
  br i1 %44, label %45, label %90

45:                                               ; preds = %41
  %46 = load i32, i32* %7, align 4
  %47 = sext i32 %46 to i64
  %48 = getelementptr inbounds [300 x i32], [300 x i32]* %8, i64 0, i64 %47
  %49 = load i32, i32* %48, align 4
  %50 = sitofp i32 %49 to double
  %51 = load double, double* %10, align 8
  %52 = fsub double %50, %51
  %53 = call double @llvm.fabs.f64(double %52)
  %54 = load double, double* %11, align 8
  %55 = fcmp ogt double %53, %54
  br i1 %55, label %56, label %69

56:                                               ; preds = %45
  %57 = load i32, i32* %7, align 4
  %58 = sext i32 %57 to i64
  %59 = getelementptr inbounds [300 x i32], [300 x i32]* %8, i64 0, i64 %58
  %60 = load i32, i32* %59, align 4
  store i32 %60, i32* %12, align 4
  %61 = load i32, i32* %7, align 4
  %62 = sext i32 %61 to i64
  %63 = getelementptr inbounds [300 x i32], [300 x i32]* %8, i64 0, i64 %62
  %64 = load i32, i32* %63, align 4
  %65 = sitofp i32 %64 to double
  %66 = load double, double* %10, align 8
  %67 = fsub double %65, %66
  %68 = call double @llvm.fabs.f64(double %67)
  store double %68, double* %11, align 8
  store i32 0, i32* %14, align 4
  br label %86

69:                                               ; preds = %45
  %70 = load i32, i32* %7, align 4
  %71 = sext i32 %70 to i64
  %72 = getelementptr inbounds [300 x i32], [300 x i32]* %8, i64 0, i64 %71
  %73 = load i32, i32* %72, align 4
  %74 = sitofp i32 %73 to double
  %75 = load double, double* %10, align 8
  %76 = fsub double %74, %75
  %77 = call double @llvm.fabs.f64(double %76)
  %78 = load double, double* %11, align 8
  %79 = fcmp oeq double %77, %78
  br i1 %79, label %80, label %85

80:                                               ; preds = %69
  %81 = load i32, i32* %7, align 4
  %82 = sext i32 %81 to i64
  %83 = getelementptr inbounds [300 x i32], [300 x i32]* %8, i64 0, i64 %82
  %84 = load i32, i32* %83, align 4
  store i32 %84, i32* %13, align 4
  store i32 1, i32* %14, align 4
  br label %85

85:                                               ; preds = %80, %69
  br label %86

86:                                               ; preds = %85, %56
  br label %87

87:                                               ; preds = %86
  %88 = load i32, i32* %7, align 4
  %89 = add nsw i32 %88, 1
  store i32 %89, i32* %7, align 4
  br label %41

90:                                               ; preds = %41
  %91 = load i32, i32* %14, align 4
  %92 = icmp ne i32 %91, 0
  br i1 %92, label %93, label %106

93:                                               ; preds = %90
  %94 = load i32, i32* %12, align 4
  %95 = load i32, i32* %13, align 4
  %96 = icmp sgt i32 %94, %95
  br i1 %96, label %97, label %101

97:                                               ; preds = %93
  %98 = load i32, i32* %13, align 4
  %99 = load i32, i32* %12, align 4
  %100 = call i32 (i8*, ...) @printf(i8* getelementptr inbounds ([6 x i8], [6 x i8]* @.str.1, i64 0, i64 0), i32 %98, i32 %99)
  br label %105

101:                                              ; preds = %93
  %102 = load i32, i32* %12, align 4
  %103 = load i32, i32* %13, align 4
  %104 = call i32 (i8*, ...) @printf(i8* getelementptr inbounds ([6 x i8], [6 x i8]* @.str.1, i64 0, i64 0), i32 %102, i32 %103)
  br label %105

105:                                              ; preds = %101, %97
  br label %109

106:                                              ; preds = %90
  %107 = load i32, i32* %12, align 4
  %108 = call i32 (i8*, ...) @printf(i8* getelementptr inbounds ([3 x i8], [3 x i8]* @.str, i64 0, i64 0), i32 %107)
  br label %109

109:                                              ; preds = %106, %105
  ret i32 0
}

declare dso_local i32 @__isoc99_scanf(i8*, ...) #1

; Function Attrs: nounwind readnone speculatable willreturn
declare double @llvm.fabs.f64(double) #2

declare dso_local i32 @printf(i8*, ...) #1


!llvm.module.flags = !{!0}
!llvm.ident = !{!1}

!0 = !{i32 1, !"wchar_size", i32 4}
!1 = !{!"clang version 10.0.0-4ubuntu1 "}
